(lp0
(lp1
(lp2
S'I'
p3
aS'A'
p4
ag4
aS'B'
p5
ag4
aa(lp6
g4
aS'D'
p7
aS'H'
p8
aS'T'
p9
aS'W'
p10
aa(lp11
g10
aS'O'
p12
ag10
ag9
aS'N'
p13
aa(lp14
g3
ag3
ag7
ag3
aS'M'
p15
aa(lp16
S'S'
p17
aS'L'
p18
aS'P'
p19
ag13
aS'E'
p20
aaa(lp21
S'abwatt'
p22
aS'baht'
p23
aS'bath'
p24
aS'batt'
p25
aS'bawtie'
p26
aS'data'
p27
aS'dhow'
p28
aS'dowie'
p29
aS'dwine'
p30
aS'howdie'
p31
aS'twit'
p32
aS'twin'
p33
aS'twine'
p34
aS'watt'
p35
aS'wadi'
p36
aS'woad'
p37
aS'wild'
p38
aS'widow'
p39
aS'width'
p40
aS'oils'
p41
aS'what'
p42
aS'whoa'
p43
aS'with'
p44
aS'wind'
p45
aS'window'
p46
aS'wine'
p47
aS'that'
p48
aS'twat'
p49
aS'tint'
p50
aS'tinmen'
p51
aS'time'
p52
aS'tipi'
p53
aS'tipis'
p54
aS'tine'
p55
aS'nidi'
p56
aS'nine'
p57
aS'iwis'
p58
aS'iodin'
p59
aS'iodine'
p60
aS'dint'
p61
aS'dime'
p62
aS'dine'
p63
aS'indow'
p64
aS'mitt'
p65
aS'mint'
p66
aS'midi'
p67
aS'midis'
p68
aS'mind'
p69
aS'mine'
p70
aS'mien'
p71
aS'mend'
p72
aS'sild'
p73
aS'slid'
p74
aS'slip'
p75
aS'lido'
p76
aS'lipin'
p77
aS'lipid'
p78
aS'pili'
p79
aS'pilis'
p80
aS'pith'
p81
aS'pitmen'
p82
aS'pint'
p83
aS'pinta'
p84
aS'pintada'
p85
aS'pintado'
p86
aS'pine'
p87
aS'ninth'
p88
aS'emit'
p89
aS'endow'
p90
aa.