(lp0
(lp1
(lp2
S'T'
p3
aS'D'
p4
aS'N'
p5
aS'S'
p6
aS'M'
p7
aa(lp8
g5
ag4
ag4
ag5
aS'F'
p9
aa(lp10
g7
aS'R'
p11
ag9
ag3
ag4
aa(lp12
S'C'
p13
ag13
ag9
ag3
ag13
aa(lp14
S'E'
p15
ag13
ag4
aS'G'
p16
aS'K'
p17
aaa(lp18
a.